target datalayout = "e-m:e-p270:32:32-p271:32:32-p272:64:64-i64:64-i128:128-f80:128-n8:16:32:64-S128"
target triple = "x86_64-pc-linux-gnu"

%struct.Sym_Man_t_ = type { ptr, ptr, i32, i32, i32, ptr, ptr, ptr, ptr, ptr, ptr, ptr, ptr, ptr, ptr, ptr, ptr, ptr, i32, i32, i32, i32, i32, i32, i32, i32, i32, i32, i32, i32, i32, i64, i64, i64, i64, i64, i64, i64 }

@.str = private unnamed_addr constant [27 x i8] c"Total symm         = %8d.\0A\00", align 1
@.str.1 = private unnamed_addr constant [27 x i8] c"Structural symm    = %8d.\0A\00", align 1
@.str.2 = private unnamed_addr constant [27 x i8] c"Total non-sym      = %8d.\0A\00", align 1
@.str.3 = private unnamed_addr constant [27 x i8] c"Total var pairs    = %8d.\0A\00", align 1
@.str.4 = private unnamed_addr constant [27 x i8] c"Sat runs SAT       = %8d.\0A\00", align 1
@.str.5 = private unnamed_addr constant [27 x i8] c"Sat runs UNSAT     = %8d.\0A\00", align 1
@.str.6 = private unnamed_addr constant [5 x i8] c"%s =\00", align 1
@.str.7 = private unnamed_addr constant [13 x i8] c"Structural  \00", align 1
@.str.8 = private unnamed_addr constant [11 x i8] c"%9.2f sec\0A\00", align 1
@.str.9 = private unnamed_addr constant [13 x i8] c"Simulation  \00", align 1
@.str.10 = private unnamed_addr constant [13 x i8] c"Matrix      \00", align 1
@.str.11 = private unnamed_addr constant [13 x i8] c"Counting    \00", align 1
@.str.12 = private unnamed_addr constant [13 x i8] c"Fraiging    \00", align 1
@.str.13 = private unnamed_addr constant [13 x i8] c"SAT         \00", align 1
@.str.14 = private unnamed_addr constant [13 x i8] c"TOTAL       \00", align 1

; Function Attrs: nounwind uwtable
define void @Sym_ManPrintStats(ptr noundef %0) #0 {
  %2 = alloca ptr, align 8
  store ptr %0, ptr %2, align 8, !tbaa !10
  %3 = load ptr, ptr %2, align 8, !tbaa !10
  %4 = getelementptr inbounds nuw %struct.Sym_Man_t_, ptr %3, i32 0, i32 26
  %5 = load i32, ptr %4, align 8, !tbaa !70
  %6 = call i32 (ptr, ...) @printf(ptr noundef @.str, i32 noundef %5)
  %7 = load ptr, ptr %2, align 8, !tbaa !10
  %8 = getelementptr inbounds nuw %struct.Sym_Man_t_, ptr %7, i32 0, i32 27
  %9 = load i32, ptr %8, align 4, !tbaa !71
  %10 = call i32 (ptr, ...) @printf(ptr noundef @.str.1, i32 noundef %9)
  %11 = load ptr, ptr %2, align 8, !tbaa !10
  %12 = getelementptr inbounds nuw %struct.Sym_Man_t_, ptr %11, i32 0, i32 28
  %13 = load i32, ptr %12, align 8, !tbaa !72
  %14 = call i32 (ptr, ...) @printf(ptr noundef @.str.2, i32 noundef %13)
  %15 = load ptr, ptr %2, align 8, !tbaa !10
  %16 = getelementptr inbounds nuw %struct.Sym_Man_t_, ptr %15, i32 0, i32 30
  %17 = load i32, ptr %16, align 8, !tbaa !73
  %18 = call i32 (ptr, ...) @printf(ptr noundef @.str.3, i32 noundef %17)
  %19 = load ptr, ptr %2, align 8, !tbaa !10
  %20 = getelementptr inbounds nuw %struct.Sym_Man_t_, ptr %19, i32 0, i32 24
  %21 = load i32, ptr %20, align 8, !tbaa !74
  %22 = call i32 (ptr, ...) @printf(ptr noundef @.str.4, i32 noundef %21)
  %23 = load ptr, ptr %2, align 8, !tbaa !10
  %24 = getelementptr inbounds nuw %struct.Sym_Man_t_, ptr %23, i32 0, i32 25
  %25 = load i32, ptr %24, align 4, !tbaa !75
  %26 = call i32 (ptr, ...) @printf(ptr noundef @.str.5, i32 noundef %25)
  call void (i32, ptr, ...) @Abc_Print(i32 noundef 1, ptr noundef @.str.6, ptr noundef @.str.7)
  %27 = load ptr, ptr %2, align 8, !tbaa !10
  %28 = getelementptr inbounds nuw %struct.Sym_Man_t_, ptr %27, i32 0, i32 31
  %29 = load i64, ptr %28, align 8, !tbaa !76
  %30 = sitofp i64 %29 to double
  %31 = fmul double 1.000000e+00, %30
  %32 = fdiv double %31, 1.000000e+06
  call void (i32, ptr, ...) @Abc_Print(i32 noundef 1, ptr noundef @.str.8, double noundef %32)
  call void (i32, ptr, ...) @Abc_Print(i32 noundef 1, ptr noundef @.str.6, ptr noundef @.str.9)
  %33 = load ptr, ptr %2, align 8, !tbaa !10
  %34 = getelementptr inbounds nuw %struct.Sym_Man_t_, ptr %33, i32 0, i32 34
  %35 = load i64, ptr %34, align 8, !tbaa !77
  %36 = sitofp i64 %35 to double
  %37 = fmul double 1.000000e+00, %36
  %38 = fdiv double %37, 1.000000e+06
  call void (i32, ptr, ...) @Abc_Print(i32 noundef 1, ptr noundef @.str.8, double noundef %38)
  call void (i32, ptr, ...) @Abc_Print(i32 noundef 1, ptr noundef @.str.6, ptr noundef @.str.10)
  %39 = load ptr, ptr %2, align 8, !tbaa !10
  %40 = getelementptr inbounds nuw %struct.Sym_Man_t_, ptr %39, i32 0, i32 33
  %41 = load i64, ptr %40, align 8, !tbaa !78
  %42 = sitofp i64 %41 to double
  %43 = fmul double 1.000000e+00, %42
  %44 = fdiv double %43, 1.000000e+06
  call void (i32, ptr, ...) @Abc_Print(i32 noundef 1, ptr noundef @.str.8, double noundef %44)
  call void (i32, ptr, ...) @Abc_Print(i32 noundef 1, ptr noundef @.str.6, ptr noundef @.str.11)
  %45 = load ptr, ptr %2, align 8, !tbaa !10
  %46 = getelementptr inbounds nuw %struct.Sym_Man_t_, ptr %45, i32 0, i32 32
  %47 = load i64, ptr %46, align 8, !tbaa !79
  %48 = sitofp i64 %47 to double
  %49 = fmul double 1.000000e+00, %48
  %50 = fdiv double %49, 1.000000e+06
  call void (i32, ptr, ...) @Abc_Print(i32 noundef 1, ptr noundef @.str.8, double noundef %50)
  call void (i32, ptr, ...) @Abc_Print(i32 noundef 1, ptr noundef @.str.6, ptr noundef @.str.12)
  %51 = load ptr, ptr %2, align 8, !tbaa !10
  %52 = getelementptr inbounds nuw %struct.Sym_Man_t_, ptr %51, i32 0, i32 35
  %53 = load i64, ptr %52, align 8, !tbaa !80
  %54 = sitofp i64 %53 to double
  %55 = fmul double 1.000000e+00, %54
  %56 = fdiv double %55, 1.000000e+06
  call void (i32, ptr, ...) @Abc_Print(i32 noundef 1, ptr noundef @.str.8, double noundef %56)
  call void (i32, ptr, ...) @Abc_Print(i32 noundef 1, ptr noundef @.str.6, ptr noundef @.str.13)
  %57 = load ptr, ptr %2, align 8, !tbaa !10
  %58 = getelementptr inbounds nuw %struct.Sym_Man_t_, ptr %57, i32 0, i32 36
  %59 = load i64, ptr %58, align 8, !tbaa !81
  %60 = sitofp i64 %59 to double
  %61 = fmul double 1.000000e+00, %60
  %62 = fdiv double %61, 1.000000e+06
  call void (i32, ptr, ...) @Abc_Print(i32 noundef 1, ptr noundef @.str.8, double noundef %62)
  call void (i32, ptr, ...) @Abc_Print(i32 noundef 1, ptr noundef @.str.6, ptr noundef @.str.14)
  %63 = load ptr, ptr %2, align 8, !tbaa !10
  %64 = getelementptr inbounds nuw %struct.Sym_Man_t_, ptr %63, i32 0, i32 37
  %65 = load i64, ptr %64, align 8, !tbaa !82
  %66 = sitofp i64 %65 to double
  %67 = fmul double 1.000000e+00, %66
  %68 = fdiv double %67, 1.000000e+06
  call void (i32, ptr, ...) @Abc_Print(i32 noundef 1, ptr noundef @.str.8, double noundef %68)
  ret void
}