; Function Attrs: nounwind uwtable
define void @Sym_ManPrintStats(ptr noundef readonly captures(none) %0) local_unnamed_addr #0 {
  %2 = getelementptr inbounds nuw i8, ptr %0, i64 168
  %3 = load i32, ptr %2, align 8, !tbaa !69
  %4 = tail call i32 (ptr, ...) @printf(ptr noundef nonnull dereferenceable(1) @.str, i32 noundef %3)
  %5 = getelementptr inbounds nuw i8, ptr %0, i64 172
  %6 = load i32, ptr %5, align 4, !tbaa !70
  %7 = tail call i32 (ptr, ...) @printf(ptr noundef nonnull dereferenceable(1) @.str.1, i32 noundef %6)
  %8 = getelementptr inbounds nuw i8, ptr %0, i64 176
  %9 = load i32, ptr %8, align 8, !tbaa !71
  %10 = tail call i32 (ptr, ...) @printf(ptr noundef nonnull dereferenceable(1) @.str.2, i32 noundef %9)
  %11 = getelementptr inbounds nuw i8, ptr %0, i64 184
  %12 = load i32, ptr %11, align 8, !tbaa !72
  %13 = tail call i32 (ptr, ...) @printf(ptr noundef nonnull dereferenceable(1) @.str.3, i32 noundef %12)
  %14 = getelementptr inbounds nuw i8, ptr %0, i64 160
  %15 = load i32, ptr %14, align 8, !tbaa !73
  %16 = tail call i32 (ptr, ...) @printf(ptr noundef nonnull dereferenceable(1) @.str.4, i32 noundef %15)
  %17 = getelementptr inbounds nuw i8, ptr %0, i64 164
  %18 = load i32, ptr %17, align 4, !tbaa !74
  %19 = tail call i32 (ptr, ...) @printf(ptr noundef nonnull dereferenceable(1) @.str.5, i32 noundef %18)
  tail call void (i32, ptr, ...) @Abc_Print(i32 poison, ptr noundef nonnull @.str.6, ptr noundef nonnull @.str.7)
  %20 = getelementptr inbounds nuw i8, ptr %0, i64 192
  %21 = load i64, ptr %20, align 8, !tbaa !75
  %22 = sitofp i64 %21 to double
  %23 = fdiv double %22, 1.000000e+06
  tail call void (i32, ptr, ...) @Abc_Print(i32 poison, ptr noundef nonnull @.str.8, double noundef %23)
  tail call void (i32, ptr, ...) @Abc_Print(i32 poison, ptr noundef nonnull @.str.6, ptr noundef nonnull @.str.9)
  %24 = getelementptr inbounds nuw i8, ptr %0, i64 216
  %25 = load i64, ptr %24, align 8, !tbaa !76
  %26 = sitofp i64 %25 to double
  %27 = fdiv double %26, 1.000000e+06
  tail call void (i32, ptr, ...) @Abc_Print(i32 poison, ptr noundef nonnull @.str.8, double noundef %27)
  tail call void (i32, ptr, ...) @Abc_Print(i32 poison, ptr noundef nonnull @.str.6, ptr noundef nonnull @.str.10)
  %28 = getelementptr inbounds nuw i8, ptr %0, i64 208
  %29 = load i64, ptr %28, align 8, !tbaa !77
  %30 = sitofp i64 %29 to double
  %31 = fdiv double %30, 1.000000e+06
  tail call void (i32, ptr, ...) @Abc_Print(i32 poison, ptr noundef nonnull @.str.8, double noundef %31)
  tail call void (i32, ptr, ...) @Abc_Print(i32 poison, ptr noundef nonnull @.str.6, ptr noundef nonnull @.str.11)
  %32 = getelementptr inbounds nuw i8, ptr %0, i64 200
  %33 = load i64, ptr %32, align 8, !tbaa !78
  %34 = sitofp i64 %33 to double
  %35 = fdiv double %34, 1.000000e+06
  tail call void (i32, ptr, ...) @Abc_Print(i32 poison, ptr noundef nonnull @.str.8, double noundef %35)
  tail call void (i32, ptr, ...) @Abc_Print(i32 poison, ptr noundef nonnull @.str.6, ptr noundef nonnull @.str.12)
  %36 = getelementptr inbounds nuw i8, ptr %0, i64 224
  %37 = load i64, ptr %36, align 8, !tbaa !79
  %38 = sitofp i64 %37 to double
  %39 = fdiv double %38, 1.000000e+06
  tail call void (i32, ptr, ...) @Abc_Print(i32 poison, ptr noundef nonnull @.str.8, double noundef %39)
  tail call void (i32, ptr, ...) @Abc_Print(i32 poison, ptr noundef nonnull @.str.6, ptr noundef nonnull @.str.13)
  %40 = getelementptr inbounds nuw i8, ptr %0, i64 232
  %41 = load i64, ptr %40, align 8, !tbaa !80
  %42 = sitofp i64 %41 to double
  %43 = fdiv double %42, 1.000000e+06
  tail call void (i32, ptr, ...) @Abc_Print(i32 poison, ptr noundef nonnull @.str.8, double noundef %43)
  tail call void (i32, ptr, ...) @Abc_Print(i32 poison, ptr noundef nonnull @.str.6, ptr noundef nonnull @.str.14)
  %44 = getelementptr inbounds nuw i8, ptr %0, i64 240
  %45 = load i64, ptr %44, align 8, !tbaa !81
  %46 = sitofp i64 %45 to double
  %47 = fdiv double %46, 1.000000e+06
  tail call void (i32, ptr, ...) @Abc_Print(i32 poison, ptr noundef nonnull @.str.8, double noundef %47)
  ret void
}